target datalayout = "e-m:e-p270:32:32-p271:32:32-p272:64:64-i64:64-i128:128-f80:128-n8:16:32:64-S128"
target triple = "x86_64-pc-linux-gnu"

%class.OopHandle = type { ptr }
%class.MutexLockerImpl = type { ptr }
%class.JNIMethodBlockNode = type { ptr, i32, i32, ptr }
%class.MutexLocker = type { %class.MutexLockerImpl }
%class.ClassLoaderData = type { %class.WeakHandle, %class.OopHandle, ptr, ptr, i8, i8, i8, i32, i32, %"class.ClassLoaderData::ChunkedHandleList", ptr, ptr, ptr, ptr, ptr, ptr, ptr, ptr, ptr, ptr, ptr, ptr, i64 }
%class.WeakHandle = type { ptr }
%"class.ClassLoaderData::ChunkedHandleList" = type { ptr }
%class.JNIMethodBlock = type { [8 x i8], %class.JNIMethodBlockNode, ptr }

@JmethodIdCreation_lock = external global ptr, align 8
@_ZN18JNIMethodBlockNodeC1Ei = hidden unnamed_addr alias void (ptr, i32), ptr @_ZN18JNIMethodBlockNodeC2Ei

; Function Attrs: mustprogress nounwind uwtable
define linkonce_odr hidden noundef i32 @_Z4MAX2IiET_S0_S0_(i32 noundef %0, i32 noundef %1) #1 comdat {
  %3 = alloca i32, align 4
  %4 = alloca i32, align 4
  store i32 %0, ptr %3, align 4
  store i32 %1, ptr %4, align 4
  %5 = load i32, ptr %3, align 4
  %6 = load i32, ptr %4, align 4
  %7 = icmp sgt i32 %5, %6
  br i1 %7, label %8, label %10

8:                                                ; preds = %2
  %9 = load i32, ptr %3, align 4
  br label %12

10:                                               ; preds = %2
  %11 = load i32, ptr %4, align 4
  br label %12

12:                                               ; preds = %10, %8
  %13 = phi i32 [ %9, %8 ], [ %11, %10 ]
  ret i32 %13
}

; Function Attrs: mustprogress nounwind uwtable
define linkonce_odr hidden void @_ZN15MutexLockerImplD2Ev(ptr noundef nonnull align 8 dereferenceable(8) %0) unnamed_addr #1 comdat align 2 {
  %2 = alloca ptr, align 8
  store ptr %0, ptr %2, align 8
  %3 = load ptr, ptr %2, align 8
  %4 = getelementptr inbounds %class.MutexLockerImpl, ptr %3, i32 0, i32 0
  %5 = load ptr, ptr %4, align 8
  %6 = icmp ne ptr %5, null
  br i1 %6, label %7, label %10

7:                                                ; preds = %1
  %8 = getelementptr inbounds %class.MutexLockerImpl, ptr %3, i32 0, i32 0
  %9 = load ptr, ptr %8, align 8
  call void @_ZN5Mutex6unlockEv(ptr noundef nonnull align 8 dereferenceable(104) %9)
  br label %10

10:                                               ; preds = %7, %1
  ret void
}

; Function Attrs: mustprogress nounwind uwtable
define linkonce_odr hidden void @_ZN18JNIMethodBlockNode14ensure_methodsEi(ptr noundef nonnull align 8 dereferenceable(24) %0, i32 noundef %1) #1 comdat align 2 {
  %3 = alloca i64, align 8
  %4 = alloca i8, align 1
  %5 = alloca i64, align 8
  %6 = alloca ptr, align 8
  %7 = alloca i32, align 4
  store ptr %0, ptr %6, align 8
  store i32 %1, ptr %7, align 4
  %8 = load ptr, ptr %6, align 8
  %9 = getelementptr inbounds %class.JNIMethodBlockNode, ptr %8, i32 0, i32 2
  %10 = load i32, ptr %9, align 4
  %11 = getelementptr inbounds %class.JNIMethodBlockNode, ptr %8, i32 0, i32 1
  %12 = load i32, ptr %11, align 8
  %13 = icmp slt i32 %10, %12
  br i1 %13, label %14, label %26

14:                                               ; preds = %2
  %15 = getelementptr inbounds %class.JNIMethodBlockNode, ptr %8, i32 0, i32 1
  %16 = load i32, ptr %15, align 8
  %17 = getelementptr inbounds %class.JNIMethodBlockNode, ptr %8, i32 0, i32 2
  %18 = load i32, ptr %17, align 4
  %19 = sub nsw i32 %16, %18
  %20 = load i32, ptr %7, align 4
  %21 = sub nsw i32 %20, %19
  store i32 %21, ptr %7, align 4
  %22 = load i32, ptr %7, align 4
  %23 = icmp sle i32 %22, 0
  br i1 %23, label %24, label %25

24:                                               ; preds = %14
  br label %42

25:                                               ; preds = %14
  br label %26

26:                                               ; preds = %25, %2
  %27 = getelementptr inbounds %class.JNIMethodBlockNode, ptr %8, i32 0, i32 3
  %28 = load ptr, ptr %27, align 8
  %29 = icmp eq ptr %28, null
  br i1 %29, label %30, label %38

30:                                               ; preds = %26
  store i64 24, ptr %5, align 8
  %31 = load i64, ptr %5, align 8
  store i64 %31, ptr %3, align 8
  store i8 1, ptr %4, align 1
  %32 = load i64, ptr %3, align 8
  %33 = load i8, ptr %4, align 1
  %34 = call noundef ptr @_Z12AllocateHeapm8MEMFLAGSN17AllocFailStrategy13AllocFailEnumE(i64 noundef %32, i8 noundef zeroext %33, i32 noundef 0) #10
  %35 = load i32, ptr %7, align 4
  %36 = call noundef i32 @_Z4MAX2IiET_S0_S0_(i32 noundef %35, i32 noundef 8)
  call void @_ZN18JNIMethodBlockNodeC1Ei(ptr noundef nonnull align 8 dereferenceable(24) %34, i32 noundef %36)
  %37 = getelementptr inbounds %class.JNIMethodBlockNode, ptr %8, i32 0, i32 3
  store ptr %34, ptr %37, align 8
  br label %42

38:                                               ; preds = %26
  %39 = getelementptr inbounds %class.JNIMethodBlockNode, ptr %8, i32 0, i32 3
  %40 = load ptr, ptr %39, align 8
  %41 = load i32, ptr %7, align 4
  call void @_ZN18JNIMethodBlockNode14ensure_methodsEi(ptr noundef nonnull align 8 dereferenceable(24) %40, i32 noundef %41)
  br label %42

42:                                               ; preds = %38, %30, %24
  ret void
}

; Function Attrs: mustprogress nounwind uwtable
define linkonce_odr hidden void @_ZN15MutexLockerImplC2EP5MutexNS0_18SafepointCheckFlagE(ptr noundef nonnull align 8 dereferenceable(8) %0, ptr noundef %1, i32 noundef %2) unnamed_addr #1 comdat align 2 {
  %4 = alloca ptr, align 8
  %5 = alloca ptr, align 8
  %6 = alloca i32, align 4
  %7 = alloca i8, align 1
  store ptr %0, ptr %4, align 8
  store ptr %1, ptr %5, align 8
  store i32 %2, ptr %6, align 4
  %8 = load ptr, ptr %4, align 8
  %9 = getelementptr inbounds %class.MutexLockerImpl, ptr %8, i32 0, i32 0
  %10 = load ptr, ptr %5, align 8
  store ptr %10, ptr %9, align 8
  %11 = load i32, ptr %6, align 4
  %12 = icmp eq i32 %11, 1
  %13 = zext i1 %12 to i8
  store i8 %13, ptr %7, align 1
  %14 = getelementptr inbounds %class.MutexLockerImpl, ptr %8, i32 0, i32 0
  %15 = load ptr, ptr %14, align 8
  %16 = icmp ne ptr %15, null
  br i1 %16, label %17, label %27

17:                                               ; preds = %3
  %18 = load i8, ptr %7, align 1
  %19 = trunc i8 %18 to i1
  br i1 %19, label %20, label %23

20:                                               ; preds = %17
  %21 = getelementptr inbounds %class.MutexLockerImpl, ptr %8, i32 0, i32 0
  %22 = load ptr, ptr %21, align 8
  call void @_ZN5Mutex28lock_without_safepoint_checkEv(ptr noundef nonnull align 8 dereferenceable(104) %22)
  br label %26

23:                                               ; preds = %17
  %24 = getelementptr inbounds %class.MutexLockerImpl, ptr %8, i32 0, i32 0
  %25 = load ptr, ptr %24, align 8
  call void @_ZN5Mutex4lockEv(ptr noundef nonnull align 8 dereferenceable(104) %25)
  br label %26

26:                                               ; preds = %23, %20
  br label %27

27:                                               ; preds = %26, %3
  ret void
}

; Function Attrs: mustprogress nounwind uwtable
define linkonce_odr hidden void @_ZN11MutexLockerD2Ev(ptr noundef nonnull align 8 dereferenceable(8) %0) unnamed_addr #1 comdat align 2 {
  %2 = alloca ptr, align 8
  store ptr %0, ptr %2, align 8
  %3 = load ptr, ptr %2, align 8
  call void @_ZN15MutexLockerImplD2Ev(ptr noundef nonnull align 8 dereferenceable(8) %3) #10
  ret void
}

; Function Attrs: mustprogress nounwind uwtable
define linkonce_odr hidden void @_ZN14JNIMethodBlock14ensure_methodsEi(ptr noundef nonnull align 8 dereferenceable(40) %0, i32 noundef %1) #1 comdat align 2 {
  %3 = alloca ptr, align 8
  %4 = alloca i32, align 4
  store ptr %0, ptr %3, align 8
  store i32 %1, ptr %4, align 4
  %5 = load ptr, ptr %3, align 8
  %6 = getelementptr inbounds %class.JNIMethodBlock, ptr %5, i32 0, i32 2
  %7 = load ptr, ptr %6, align 8
  %8 = load i32, ptr %4, align 4
  call void @_ZN18JNIMethodBlockNode14ensure_methodsEi(ptr noundef nonnull align 8 dereferenceable(24) %7, i32 noundef %8)
  ret void
}

; Function Attrs: mustprogress nounwind uwtable
define linkonce_odr hidden void @_ZN15ClassLoaderData15set_jmethod_idsEP14JNIMethodBlock(ptr noundef nonnull align 8 dereferenceable(160) %0, ptr noundef %1) #1 comdat align 2 {
  %3 = alloca ptr, align 8
  %4 = alloca ptr, align 8
  store ptr %0, ptr %3, align 8
  store ptr %1, ptr %4, align 8
  %5 = load ptr, ptr %3, align 8
  %6 = load ptr, ptr %4, align 8
  %7 = getelementptr inbounds %class.ClassLoaderData, ptr %5, i32 0, i32 15
  store ptr %6, ptr %7, align 8
  ret void
}

; Function Attrs: mustprogress nounwind uwtable
define linkonce_odr hidden void @_ZN14JNIMethodBlockC2Ei(ptr noundef nonnull align 8 dereferenceable(40) %0, i32 noundef %1) unnamed_addr #1 comdat align 2 {
  %3 = alloca ptr, align 8
  %4 = alloca i32, align 4
  store ptr %0, ptr %3, align 8
  store i32 %1, ptr %4, align 4
  %5 = load ptr, ptr %3, align 8
  %6 = getelementptr inbounds %class.JNIMethodBlock, ptr %5, i32 0, i32 1
  %7 = load i32, ptr %4, align 4
  call void @_ZN18JNIMethodBlockNodeC1Ei(ptr noundef nonnull align 8 dereferenceable(24) %6, i32 noundef %7)
  %8 = getelementptr inbounds %class.JNIMethodBlock, ptr %5, i32 0, i32 2
  %9 = getelementptr inbounds %class.JNIMethodBlock, ptr %5, i32 0, i32 1
  store ptr %9, ptr %8, align 8
  ret void
}

; Function Attrs: mustprogress nounwind uwtable
define linkonce_odr hidden noundef ptr @_ZNK15ClassLoaderData11jmethod_idsEv(ptr noundef nonnull align 8 dereferenceable(160) %0) #1 comdat align 2 {
  %2 = alloca ptr, align 8
  store ptr %0, ptr %2, align 8
  %3 = load ptr, ptr %2, align 8
  %4 = getelementptr inbounds %class.ClassLoaderData, ptr %3, i32 0, i32 15
  %5 = load ptr, ptr %4, align 8
  ret ptr %5
}

; Function Attrs: mustprogress nounwind uwtable
define linkonce_odr hidden void @_ZN11MutexLockerC2EP5MutexNS0_18SafepointCheckFlagE(ptr noundef nonnull align 8 dereferenceable(8) %0, ptr noundef %1, i32 noundef %2) unnamed_addr #1 comdat align 2 {
  %4 = alloca ptr, align 8
  %5 = alloca ptr, align 8
  %6 = alloca i32, align 4
  store ptr %0, ptr %4, align 8
  store ptr %1, ptr %5, align 8
  store i32 %2, ptr %6, align 4
  %7 = load ptr, ptr %4, align 8
  %8 = load ptr, ptr %5, align 8
  %9 = load i32, ptr %6, align 4
  call void @_ZN15MutexLockerImplC2EP5MutexNS0_18SafepointCheckFlagE(ptr noundef nonnull align 8 dereferenceable(8) %7, ptr noundef %8, i32 noundef %9)
  ret void
}

; Function Attrs: mustprogress nounwind uwtable
define hidden void @_ZN6Method18ensure_jmethod_idsEP15ClassLoaderDatai(ptr noundef %0, i32 noundef %1) #1 align 2 {
  %3 = alloca i64, align 8
  %4 = alloca i8, align 1
  %5 = alloca i64, align 8
  %6 = alloca ptr, align 8
  %7 = alloca i32, align 4
  %8 = alloca %class.MutexLocker, align 8
  store ptr %0, ptr %6, align 8
  store i32 %1, ptr %7, align 4
  %9 = load ptr, ptr @JmethodIdCreation_lock, align 8
  call void @_ZN11MutexLockerC2EP5MutexNS0_18SafepointCheckFlagE(ptr noundef nonnull align 8 dereferenceable(8) %8, ptr noundef %9, i32 noundef 1)
  %10 = load ptr, ptr %6, align 8
  %11 = call noundef ptr @_ZNK15ClassLoaderData11jmethod_idsEv(ptr noundef nonnull align 8 dereferenceable(160) %10)
  %12 = icmp eq ptr %11, null
  br i1 %12, label %13, label %20

13:                                               ; preds = %2
  %14 = load ptr, ptr %6, align 8
  store i64 40, ptr %5, align 8
  %15 = load i64, ptr %5, align 8
  store i64 %15, ptr %3, align 8
  store i8 1, ptr %4, align 1
  %16 = load i64, ptr %3, align 8
  %17 = load i8, ptr %4, align 1
  %18 = call noundef ptr @_Z12AllocateHeapm8MEMFLAGSN17AllocFailStrategy13AllocFailEnumE(i64 noundef %16, i8 noundef zeroext %17, i32 noundef 0) #10
  %19 = load i32, ptr %7, align 4
  call void @_ZN14JNIMethodBlockC2Ei(ptr noundef nonnull align 8 dereferenceable(40) %18, i32 noundef %19)
  call void @_ZN15ClassLoaderData15set_jmethod_idsEP14JNIMethodBlock(ptr noundef nonnull align 8 dereferenceable(160) %14, ptr noundef %18)
  br label %24

20:                                               ; preds = %2
  %21 = load ptr, ptr %6, align 8
  %22 = call noundef ptr @_ZNK15ClassLoaderData11jmethod_idsEv(ptr noundef nonnull align 8 dereferenceable(160) %21)
  %23 = load i32, ptr %7, align 4
  call void @_ZN14JNIMethodBlock14ensure_methodsEi(ptr noundef nonnull align 8 dereferenceable(40) %22, i32 noundef %23)
  br label %24

24:                                               ; preds = %20, %13
  call void @_ZN11MutexLockerD2Ev(ptr noundef nonnull align 8 dereferenceable(8) %8) #10
  ret void
}