; Function Attrs: mustprogress nounwind uwtable
define hidden void @_ZN6Method18ensure_jmethod_idsEP15ClassLoaderDatai(ptr nocapture noundef %0, i32 noundef %1) local_unnamed_addr #0 align 2 {
  %3 = load ptr, ptr @JmethodIdCreation_lock, align 8
  %.not.i.i = icmp eq ptr %3, null
  br i1 %.not.i.i, label %_ZN11MutexLockerC2EP5MutexNS0_18SafepointCheckFlagE.exit, label %4

4:                                                ; preds = %2
  tail call void @_ZN5Mutex28lock_without_safepoint_checkEv(ptr noundef nonnull align 8 dereferenceable(104) %3) #23
  br label %_ZN11MutexLockerC2EP5MutexNS0_18SafepointCheckFlagE.exit

_ZN11MutexLockerC2EP5MutexNS0_18SafepointCheckFlagE.exit: ; preds = %2, %4
  %5 = getelementptr inbounds i8, ptr %0, i64 96
  %6 = load ptr, ptr %5, align 8
  %7 = icmp eq ptr %6, null
  br i1 %7, label %8, label %26

8:                                                ; preds = %_ZN11MutexLockerC2EP5MutexNS0_18SafepointCheckFlagE.exit
  %9 = tail call noundef ptr @_Z12AllocateHeapm8MEMFLAGSN17AllocFailStrategy13AllocFailEnumE(i64 noundef 40, i8 noundef zeroext 1, i32 noundef 0) #23
  %10 = getelementptr inbounds i8, ptr %9, i64 8
  %11 = getelementptr inbounds i8, ptr %9, i64 20
  store i32 0, ptr %11, align 4
  %12 = getelementptr inbounds i8, ptr %9, i64 24
  store ptr null, ptr %12, align 8
  %13 = tail call noundef i32 @llvm.smax.i32(i32 %1, i32 8)
  %14 = getelementptr inbounds i8, ptr %9, i64 16
  store i32 %13, ptr %14, align 8
  %15 = zext nneg i32 %13 to i64
  %16 = shl nuw nsw i64 %15, 3
  %17 = tail call noundef ptr @_Z12AllocateHeapm8MEMFLAGSN17AllocFailStrategy13AllocFailEnumE(i64 noundef %16, i8 noundef zeroext 9, i32 noundef 0) #23
  store ptr %17, ptr %10, align 8
  %18 = load i32, ptr %14, align 8
  %19 = icmp sgt i32 %18, 0
  br i1 %19, label %.lr.ph.i.i, label %_ZN14JNIMethodBlockC2Ei.exit

.lr.ph.i.i:                                       ; preds = %8, %.lr.ph.i.i
  %indvars.iv.i.i = phi i64 [ %indvars.iv.next.i.i, %.lr.ph.i.i ], [ 0, %8 ]
  %20 = load ptr, ptr %10, align 8
  %21 = getelementptr inbounds ptr, ptr %20, i64 %indvars.iv.i.i
  store ptr inttoptr (i64 55 to ptr), ptr %21, align 8
  %indvars.iv.next.i.i = add nuw nsw i64 %indvars.iv.i.i, 1
  %22 = load i32, ptr %14, align 8
  %23 = sext i32 %22 to i64
  %24 = icmp slt i64 %indvars.iv.next.i.i, %23
  br i1 %24, label %.lr.ph.i.i, label %_ZN14JNIMethodBlockC2Ei.exit, !llvm.loop !29

_ZN14JNIMethodBlockC2Ei.exit:                     ; preds = %.lr.ph.i.i, %8
  %25 = getelementptr inbounds i8, ptr %9, i64 32
  store ptr %10, ptr %25, align 8
  store ptr %9, ptr %5, align 8
  br label %_ZN14JNIMethodBlock14ensure_methodsEi.exit

26:                                               ; preds = %_ZN11MutexLockerC2EP5MutexNS0_18SafepointCheckFlagE.exit
  %27 = getelementptr inbounds i8, ptr %6, i64 32
  %28 = load ptr, ptr %27, align 8
  br label %tailrecurse.i.i

tailrecurse.i.i:                                  ; preds = %37, %26
  %.tr.i.i = phi ptr [ %28, %26 ], [ %39, %37 ]
  %.tr11.i.i = phi i32 [ %1, %26 ], [ %.0.i.i, %37 ]
  %29 = getelementptr inbounds i8, ptr %.tr.i.i, i64 12
  %30 = load i32, ptr %29, align 4
  %31 = getelementptr inbounds i8, ptr %.tr.i.i, i64 8
  %32 = load i32, ptr %31, align 8
  %33 = icmp slt i32 %30, %32
  br i1 %33, label %34, label %37

34:                                               ; preds = %tailrecurse.i.i
  %.neg.i.i = sub i32 %30, %32
  %35 = add i32 %.neg.i.i, %.tr11.i.i
  %36 = icmp slt i32 %35, 1
  br i1 %36, label %_ZN14JNIMethodBlock14ensure_methodsEi.exit, label %37

37:                                               ; preds = %34, %tailrecurse.i.i
  %.0.i.i = phi i32 [ %35, %34 ], [ %.tr11.i.i, %tailrecurse.i.i ]
  %38 = getelementptr inbounds i8, ptr %.tr.i.i, i64 16
  %39 = load ptr, ptr %38, align 8
  %40 = icmp eq ptr %39, null
  br i1 %40, label %41, label %tailrecurse.i.i

41:                                               ; preds = %37
  %42 = getelementptr inbounds i8, ptr %.tr.i.i, i64 16
  %43 = tail call noundef ptr @_Z12AllocateHeapm8MEMFLAGSN17AllocFailStrategy13AllocFailEnumE(i64 noundef 24, i8 noundef zeroext 1, i32 noundef 0) #23
  %44 = tail call noundef i32 @llvm.smax.i32(i32 %.0.i.i, i32 8)
  %45 = getelementptr inbounds i8, ptr %43, i64 12
  store i32 0, ptr %45, align 4
  %46 = getelementptr inbounds i8, ptr %43, i64 16
  store ptr null, ptr %46, align 8
  %47 = getelementptr inbounds i8, ptr %43, i64 8
  store i32 %44, ptr %47, align 8
  %48 = zext nneg i32 %44 to i64
  %49 = shl nuw nsw i64 %48, 3
  %50 = tail call noundef ptr @_Z12AllocateHeapm8MEMFLAGSN17AllocFailStrategy13AllocFailEnumE(i64 noundef %49, i8 noundef zeroext 9, i32 noundef 0) #23
  store ptr %50, ptr %43, align 8
  %51 = load i32, ptr %47, align 8
  %52 = icmp sgt i32 %51, 0
  br i1 %52, label %.lr.ph.i.i.i, label %_ZN18JNIMethodBlockNodeC2Ei.exit.i.i

.lr.ph.i.i.i:                                     ; preds = %41, %.lr.ph.i.i.i
  %indvars.iv.i.i.i = phi i64 [ %indvars.iv.next.i.i.i, %.lr.ph.i.i.i ], [ 0, %41 ]
  %53 = load ptr, ptr %43, align 8
  %54 = getelementptr inbounds ptr, ptr %53, i64 %indvars.iv.i.i.i
  store ptr inttoptr (i64 55 to ptr), ptr %54, align 8
  %indvars.iv.next.i.i.i = add nuw nsw i64 %indvars.iv.i.i.i, 1
  %55 = load i32, ptr %47, align 8
  %56 = sext i32 %55 to i64
  %57 = icmp slt i64 %indvars.iv.next.i.i.i, %56
  br i1 %57, label %.lr.ph.i.i.i, label %_ZN18JNIMethodBlockNodeC2Ei.exit.i.i, !llvm.loop !29

_ZN18JNIMethodBlockNodeC2Ei.exit.i.i:             ; preds = %.lr.ph.i.i.i, %41
  store ptr %43, ptr %42, align 8
  br label %_ZN14JNIMethodBlock14ensure_methodsEi.exit

_ZN14JNIMethodBlock14ensure_methodsEi.exit:       ; preds = %34, %_ZN18JNIMethodBlockNodeC2Ei.exit.i.i, %_ZN14JNIMethodBlockC2Ei.exit
  br i1 %.not.i.i, label %_ZN11MutexLockerD2Ev.exit, label %58

58:                                               ; preds = %_ZN14JNIMethodBlock14ensure_methodsEi.exit
  tail call void @_ZN5Mutex6unlockEv(ptr noundef nonnull align 8 dereferenceable(104) %3) #23
  br label %_ZN11MutexLockerD2Ev.exit

_ZN11MutexLockerD2Ev.exit:                        ; preds = %_ZN14JNIMethodBlock14ensure_methodsEi.exit, %58
  ret void
}